target datalayout = "e-m:e-p270:32:32-p271:32:32-p272:64:64-i64:64-i128:128-f80:128-n8:16:32:64-S128"
target triple = "x86_64-pc-linux-gnu"

%struct.lv_ll_t = type { i32, ptr, ptr }
%struct._lv_group_t = type { %struct.lv_ll_t, ptr, ptr, ptr, ptr, i8 }

; Function Attrs: nounwind uwtable
define ptr @lv_group_get_obj_by_index(ptr noundef %0, i32 noundef %1) #0 {
  %3 = alloca ptr, align 8
  %4 = alloca ptr, align 8
  %5 = alloca i32, align 4
  %6 = alloca i32, align 4
  %7 = alloca ptr, align 8
  %8 = alloca i32, align 4
  store ptr %0, ptr %4, align 8, !tbaa !3
  store i32 %1, ptr %5, align 4, !tbaa !27
  call void @llvm.lifetime.start.p0(i64 4, ptr %6) #3
  store i32 0, ptr %6, align 4, !tbaa !27
  call void @llvm.lifetime.start.p0(i64 8, ptr %7) #3
  %9 = load ptr, ptr %4, align 8, !tbaa !3
  %10 = getelementptr inbounds nuw %struct._lv_group_t, ptr %9, i32 0, i32 0
  %11 = call ptr @lv_ll_get_head(ptr noundef %10)
  store ptr %11, ptr %7, align 8, !tbaa !3
  br label %12

12:                                               ; preds = %25, %2
  %13 = load ptr, ptr %7, align 8, !tbaa !3
  %14 = icmp ne ptr %13, null
  br i1 %14, label %15, label %30

15:                                               ; preds = %12
  %16 = load i32, ptr %6, align 4, !tbaa !27
  %17 = load i32, ptr %5, align 4, !tbaa !27
  %18 = icmp eq i32 %16, %17
  br i1 %18, label %19, label %22

19:                                               ; preds = %15
  %20 = load ptr, ptr %7, align 8, !tbaa !3
  %21 = load ptr, ptr %20, align 8, !tbaa !3
  store ptr %21, ptr %3, align 8
  store i32 1, ptr %8, align 4
  br label %31

22:                                               ; preds = %15
  %23 = load i32, ptr %6, align 4, !tbaa !27
  %24 = add i32 %23, 1
  store i32 %24, ptr %6, align 4, !tbaa !27
  br label %25

25:                                               ; preds = %22
  %26 = load ptr, ptr %4, align 8, !tbaa !3
  %27 = getelementptr inbounds nuw %struct._lv_group_t, ptr %26, i32 0, i32 0
  %28 = load ptr, ptr %7, align 8, !tbaa !3
  %29 = call ptr @lv_ll_get_next(ptr noundef %27, ptr noundef %28)
  store ptr %29, ptr %7, align 8, !tbaa !3
  br label %12, !llvm.loop !48

30:                                               ; preds = %12
  store ptr null, ptr %3, align 8
  store i32 1, ptr %8, align 4
  br label %31

31:                                               ; preds = %30, %19
  call void @llvm.lifetime.end.p0(i64 8, ptr %7) #3
  call void @llvm.lifetime.end.p0(i64 4, ptr %6) #3
  %32 = load ptr, ptr %3, align 8
  ret ptr %32
}