; Function Attrs: nounwind uwtable
define ptr @lv_group_get_obj_by_index(ptr noundef %0, i32 noundef %1) local_unnamed_addr #0 {
  %3 = tail call ptr @lv_ll_get_head(ptr noundef %0) #10
  %.not11 = icmp eq ptr %3, null
  br i1 %.not11, label %.loopexit, label %.lr.ph

.lr.ph:                                           ; preds = %2, %7
  %.013 = phi ptr [ %9, %7 ], [ %3, %2 ]
  %.0812 = phi i32 [ %8, %7 ], [ 0, %2 ]
  %4 = icmp eq i32 %.0812, %1
  br i1 %4, label %5, label %7

5:                                                ; preds = %.lr.ph
  %6 = load ptr, ptr %.013, align 8, !tbaa !11
  br label %.loopexit

7:                                                ; preds = %.lr.ph
  %8 = add i32 %.0812, 1
  %9 = tail call ptr @lv_ll_get_next(ptr noundef %0, ptr noundef nonnull %.013) #10
  %.not = icmp eq ptr %9, null
  br i1 %.not, label %.loopexit, label %.lr.ph, !llvm.loop !46

.loopexit:                                        ; preds = %7, %2, %5
  %.09 = phi ptr [ %6, %5 ], [ null, %2 ], [ null, %7 ]
  ret ptr %.09
}